target datalayout = "e-m:e-p270:32:32-p271:32:32-p272:64:64-i64:64-i128:128-f80:128-n8:16:32:64-S128"
target triple = "x86_64-pc-linux-gnu"

%struct.ggml_backend_buffer_i = type { ptr, ptr, ptr, ptr, ptr, ptr, ptr, ptr, ptr }
%struct.ggml_backend_buffer = type { %struct.ggml_backend_buffer_i, ptr, ptr, i64, i32 }
%struct.ggml_tensor = type { i32, ptr, [4 x i64], [4 x i64], i32, [16 x i32], i32, [10 x ptr], ptr, i64, ptr, [64 x i8], ptr, [8 x i8] }

@.str = private unnamed_addr constant [123 x i8] c"generated/home/dtcxzyw/WorkSpace/Projects/compilers/llvm-opt-benchmark/bench/llama.cpp/llama.cpp/ggml/src/ggml-backend.cpp\00", align 1
@.str.1 = private unnamed_addr constant [23 x i8] c"GGML_ASSERT(%s) failed\00", align 1
@.str.4 = private unnamed_addr constant [47 x i8] c"tensor->data != NULL && \22tensor not allocated\22\00", align 1
@.str.5 = private unnamed_addr constant [69 x i8] c"offset + size <= ggml_nbytes(tensor) && \22tensor write out of bounds\22\00", align 1
@.str.8 = private unnamed_addr constant [39 x i8] c"buf != NULL && \22tensor buffer not set\22\00", align 1
@.str.9 = private unnamed_addr constant [79 x i8] c"buf->iface.memset_tensor != NULL && \22memset not implemented by backend buffer\22\00", align 1

; Function Attrs: mustprogress uwtable
define void @ggml_backend_tensor_memset(ptr noundef %0, i8 noundef zeroext %1, i64 noundef %2, i64 noundef %3) #0 {
  %5 = alloca ptr, align 8
  %6 = alloca i8, align 1
  %7 = alloca i64, align 8
  %8 = alloca i64, align 8
  %9 = alloca ptr, align 8
  %10 = alloca i32, align 4
  store ptr %0, ptr %5, align 8, !tbaa !28
  store i8 %1, ptr %6, align 1, !tbaa !36
  store i64 %2, ptr %7, align 8, !tbaa !12
  store i64 %3, ptr %8, align 8, !tbaa !12
  call void @llvm.lifetime.start.p0(i64 8, ptr %9) #15
  %11 = load ptr, ptr %5, align 8, !tbaa !28
  %12 = getelementptr inbounds nuw %struct.ggml_tensor, ptr %11, i32 0, i32 8
  %13 = load ptr, ptr %12, align 8, !tbaa !49
  %14 = icmp ne ptr %13, null
  br i1 %14, label %15, label %21

15:                                               ; preds = %4
  %16 = load ptr, ptr %5, align 8, !tbaa !28
  %17 = getelementptr inbounds nuw %struct.ggml_tensor, ptr %16, i32 0, i32 8
  %18 = load ptr, ptr %17, align 8, !tbaa !49
  %19 = getelementptr inbounds nuw %struct.ggml_tensor, ptr %18, i32 0, i32 1
  %20 = load ptr, ptr %19, align 8, !tbaa !54
  br label %25

21:                                               ; preds = %4
  %22 = load ptr, ptr %5, align 8, !tbaa !28
  %23 = getelementptr inbounds nuw %struct.ggml_tensor, ptr %22, i32 0, i32 1
  %24 = load ptr, ptr %23, align 8, !tbaa !54
  br label %25

25:                                               ; preds = %21, %15
  %26 = phi ptr [ %20, %15 ], [ %24, %21 ]
  store ptr %26, ptr %9, align 8, !tbaa !24
  %27 = load i64, ptr %8, align 8, !tbaa !12
  %28 = icmp eq i64 %27, 0
  br i1 %28, label %29, label %30

29:                                               ; preds = %25
  store i32 1, ptr %10, align 4
  br label %65

30:                                               ; preds = %25
  %31 = load ptr, ptr %9, align 8, !tbaa !24
  %32 = icmp ne ptr %31, null
  br i1 %32, label %34, label %33

33:                                               ; preds = %30
  call void (ptr, i32, ptr, ...) @ggml_abort(ptr noundef @.str, i32 noundef 291, ptr noundef @.str.1, ptr noundef @.str.8) #18
  unreachable

34:                                               ; preds = %30
  %35 = load ptr, ptr %5, align 8, !tbaa !28
  %36 = getelementptr inbounds nuw %struct.ggml_tensor, ptr %35, i32 0, i32 10
  %37 = load ptr, ptr %36, align 8, !tbaa !70
  %38 = icmp ne ptr %37, null
  br i1 %38, label %40, label %39

39:                                               ; preds = %34
  call void (ptr, i32, ptr, ...) @ggml_abort(ptr noundef @.str, i32 noundef 292, ptr noundef @.str.1, ptr noundef @.str.4) #18
  unreachable

40:                                               ; preds = %34
  %41 = load i64, ptr %7, align 8, !tbaa !12
  %42 = load i64, ptr %8, align 8, !tbaa !12
  %43 = add i64 %41, %42
  %44 = load ptr, ptr %5, align 8, !tbaa !28
  %45 = call i64 @ggml_nbytes(ptr noundef %44)
  %46 = icmp ule i64 %43, %45
  br i1 %46, label %48, label %47

47:                                               ; preds = %40
  call void (ptr, i32, ptr, ...) @ggml_abort(ptr noundef @.str, i32 noundef 293, ptr noundef @.str.1, ptr noundef @.str.5) #18
  unreachable

48:                                               ; preds = %40
  %49 = load ptr, ptr %9, align 8, !tbaa !24
  %50 = getelementptr inbounds nuw %struct.ggml_backend_buffer, ptr %49, i32 0, i32 0
  %51 = getelementptr inbounds nuw %struct.ggml_backend_buffer_i, ptr %50, i32 0, i32 3
  %52 = load ptr, ptr %51, align 8, !tbaa !75
  %53 = icmp ne ptr %52, null
  br i1 %53, label %55, label %54

54:                                               ; preds = %48
  call void (ptr, i32, ptr, ...) @ggml_abort(ptr noundef @.str, i32 noundef 294, ptr noundef @.str.1, ptr noundef @.str.9) #18
  unreachable

55:                                               ; preds = %48
  %56 = load ptr, ptr %9, align 8, !tbaa !24
  %57 = getelementptr inbounds nuw %struct.ggml_backend_buffer, ptr %56, i32 0, i32 0
  %58 = getelementptr inbounds nuw %struct.ggml_backend_buffer_i, ptr %57, i32 0, i32 3
  %59 = load ptr, ptr %58, align 8, !tbaa !75
  %60 = load ptr, ptr %9, align 8, !tbaa !24
  %61 = load ptr, ptr %5, align 8, !tbaa !28
  %62 = load i8, ptr %6, align 1, !tbaa !36
  %63 = load i64, ptr %7, align 8, !tbaa !12
  %64 = load i64, ptr %8, align 8, !tbaa !12
  call void %59(ptr noundef %60, ptr noundef %61, i8 noundef zeroext %62, i64 noundef %63, i64 noundef %64)
  store i32 0, ptr %10, align 4
  br label %65

65:                                               ; preds = %55, %29
  call void @llvm.lifetime.end.p0(i64 8, ptr %9) #15
  %66 = load i32, ptr %10, align 4
  switch i32 %66, label %68 [
    i32 0, label %67
    i32 1, label %67
  ]

67:                                               ; preds = %65, %65
  ret void

68:                                               ; preds = %65
  unreachable
}