; Function Attrs: mustprogress uwtable
define void @ggml_backend_tensor_memset(ptr noundef %0, i8 noundef zeroext %1, i64 noundef %2, i64 noundef %3) local_unnamed_addr #0 {
  %5 = getelementptr inbounds nuw i8, ptr %0, i64 232
  %6 = load ptr, ptr %5, align 8, !tbaa !41
  %.not = icmp eq ptr %6, null
  %. = select i1 %.not, ptr %0, ptr %6
  %.in = getelementptr inbounds nuw i8, ptr %., i64 8
  %7 = load ptr, ptr %.in, align 8, !tbaa !47
  %8 = icmp eq i64 %3, 0
  br i1 %8, label %24, label %9

9:                                                ; preds = %4
  %.not18 = icmp eq ptr %7, null
  br i1 %.not18, label %10, label %11

10:                                               ; preds = %9
  tail call void (ptr, i32, ptr, ...) @ggml_abort(ptr noundef nonnull @.str, i32 noundef 291, ptr noundef nonnull @.str.1, ptr noundef nonnull @.str.8) #24
  unreachable

11:                                               ; preds = %9
  %12 = getelementptr inbounds nuw i8, ptr %0, i64 248
  %13 = load ptr, ptr %12, align 8, !tbaa !60
  %.not19 = icmp eq ptr %13, null
  br i1 %.not19, label %14, label %15

14:                                               ; preds = %11
  tail call void (ptr, i32, ptr, ...) @ggml_abort(ptr noundef nonnull @.str, i32 noundef 292, ptr noundef nonnull @.str.1, ptr noundef nonnull @.str.4) #24
  unreachable

15:                                               ; preds = %11
  %16 = add i64 %3, %2
  %17 = tail call i64 @ggml_nbytes(ptr noundef nonnull %0)
  %.not20 = icmp ugt i64 %16, %17
  br i1 %.not20, label %18, label %19

18:                                               ; preds = %15
  tail call void (ptr, i32, ptr, ...) @ggml_abort(ptr noundef nonnull @.str, i32 noundef 293, ptr noundef nonnull @.str.1, ptr noundef nonnull @.str.5) #24
  unreachable

19:                                               ; preds = %15
  %20 = getelementptr inbounds nuw i8, ptr %7, i64 24
  %21 = load ptr, ptr %20, align 8, !tbaa !65
  %.not21 = icmp eq ptr %21, null
  br i1 %.not21, label %22, label %23

22:                                               ; preds = %19
  tail call void (ptr, i32, ptr, ...) @ggml_abort(ptr noundef nonnull @.str, i32 noundef 294, ptr noundef nonnull @.str.1, ptr noundef nonnull @.str.9) #24
  unreachable

23:                                               ; preds = %19
  tail call void %21(ptr noundef nonnull %7, ptr noundef nonnull %0, i8 noundef zeroext %1, i64 noundef %2, i64 noundef %3)
  br label %24

24:                                               ; preds = %4, %23
  ret void
}